target datalayout = "e-m:e-p270:32:32-p271:32:32-p272:64:64-i64:64-i128:128-f80:128-n8:16:32:64-S128"
target triple = "x86_64-pc-linux-gnu"

%"class.icu_77::UCharCharacterIterator" = type { %"class.icu_77::CharacterIterator", ptr }
%"class.icu_77::CharacterIterator" = type { %"class.icu_77::ForwardCharacterIterator", i32, i32, i32, i32 }
%"class.icu_77::ForwardCharacterIterator" = type { %"class.icu_77::UObject" }
%"class.icu_77::UObject" = type { ptr }
%"class.icu_77::ConstChar16Ptr" = type { ptr }

; Function Attrs: inlinehint mustprogress nounwind uwtable
define linkonce_odr noundef ptr @_ZNK6icu_7714ConstChar16Ptr3getEv(ptr noundef nonnull align 8 dereferenceable(8) %0) #6 comdat align 2 {
  %2 = alloca ptr, align 8
  store ptr %0, ptr %2, align 8, !tbaa !17
  %3 = load ptr, ptr %2, align 8
  %4 = getelementptr inbounds nuw %"class.icu_77::ConstChar16Ptr", ptr %3, i32 0, i32 0
  %5 = load ptr, ptr %4, align 8, !tbaa !41
  ret ptr %5
}

; Function Attrs: inlinehint mustprogress uwtable
define linkonce_odr noundef ptr @_ZNK6icu_7714ConstChar16PtrcvPKDsEv(ptr noundef nonnull align 8 dereferenceable(8) %0) #3 comdat align 2 {
  %2 = alloca ptr, align 8
  store ptr %0, ptr %2, align 8, !tbaa !17
  %3 = load ptr, ptr %2, align 8
  %4 = call noundef ptr @_ZNK6icu_7714ConstChar16Ptr3getEv(ptr noundef nonnull align 8 dereferenceable(8) %3)
  ret ptr %4
}

; Function Attrs: mustprogress uwtable
define void @_ZN6icu_7722UCharCharacterIterator7setTextENS_14ConstChar16PtrEi(ptr noundef nonnull align 8 dereferenceable(32) %0, ptr noundef %1, i32 noundef %2) #1 align 2 {
  %4 = alloca ptr, align 8
  %5 = alloca ptr, align 8
  %6 = alloca i32, align 4
  store ptr %0, ptr %4, align 8, !tbaa !3
  store ptr %1, ptr %5, align 8, !tbaa !17
  store i32 %2, ptr %6, align 4, !tbaa !19
  %7 = load ptr, ptr %4, align 8
  %8 = call noundef ptr @_ZNK6icu_7714ConstChar16PtrcvPKDsEv(ptr noundef nonnull align 8 dereferenceable(8) %1)
  %9 = getelementptr inbounds nuw %"class.icu_77::UCharCharacterIterator", ptr %7, i32 0, i32 1
  store ptr %8, ptr %9, align 8, !tbaa !10
  %10 = call noundef ptr @_ZNK6icu_7714ConstChar16PtrcvPKDsEv(ptr noundef nonnull align 8 dereferenceable(8) %1)
  %11 = icmp eq ptr %10, null
  br i1 %11, label %15, label %12

12:                                               ; preds = %3
  %13 = load i32, ptr %6, align 4, !tbaa !19
  %14 = icmp slt i32 %13, 0
  br i1 %14, label %15, label %16

15:                                               ; preds = %12, %3
  store i32 0, ptr %6, align 4, !tbaa !19
  br label %16

16:                                               ; preds = %15, %12
  %17 = load i32, ptr %6, align 4, !tbaa !19
  %18 = getelementptr inbounds nuw %"class.icu_77::CharacterIterator", ptr %7, i32 0, i32 1
  store i32 %17, ptr %18, align 8, !tbaa !22
  %19 = getelementptr inbounds nuw %"class.icu_77::CharacterIterator", ptr %7, i32 0, i32 4
  store i32 %17, ptr %19, align 4, !tbaa !25
  %20 = getelementptr inbounds nuw %"class.icu_77::CharacterIterator", ptr %7, i32 0, i32 3
  store i32 0, ptr %20, align 8, !tbaa !24
  %21 = getelementptr inbounds nuw %"class.icu_77::CharacterIterator", ptr %7, i32 0, i32 2
  store i32 0, ptr %21, align 4, !tbaa !23
  ret void
}