; Function Attrs: mustprogress nofree norecurse nosync nounwind willreturn memory(argmem: readwrite) uwtable
define void @_ZN6icu_7722UCharCharacterIterator7setTextENS_14ConstChar16PtrEi(ptr noundef nonnull writeonly align 8 captures(none) dereferenceable(32) initializes((8, 32)) %0, ptr noundef readonly captures(none) %1, i32 noundef %2) local_unnamed_addr #10 align 2 {
  %4 = load ptr, ptr %1, align 8, !tbaa !15
  %5 = getelementptr inbounds nuw i8, ptr %0, i64 24
  store ptr %4, ptr %5, align 8, !tbaa !6
  %6 = icmp eq ptr %4, null
  %7 = tail call i32 @llvm.smax.i32(i32 %2, i32 0)
  %spec.store.select = select i1 %6, i32 0, i32 %7
  %8 = getelementptr inbounds nuw i8, ptr %0, i64 8
  store i32 %spec.store.select, ptr %8, align 8, !tbaa !21
  %9 = getelementptr inbounds nuw i8, ptr %0, i64 20
  store i32 %spec.store.select, ptr %9, align 4, !tbaa !24
  %10 = getelementptr inbounds nuw i8, ptr %0, i64 16
  store i32 0, ptr %10, align 8, !tbaa !23
  %11 = getelementptr inbounds nuw i8, ptr %0, i64 12
  store i32 0, ptr %11, align 4, !tbaa !22
  ret void
}